target datalayout = "e-m:e-p270:32:32-p271:32:32-p272:64:64-i64:64-i128:128-f80:128-n8:16:32:64-S128"
target triple = "x86_64-pc-linux-gnu"

%struct.yyjson_alc = type { ptr, ptr, ptr, ptr }
%struct.yyjson_str_pool = type { ptr, ptr, i64, i64, ptr }
%struct.yyjson_val_pool = type { ptr, ptr, i64, i64, ptr }
%struct.yyjson_mut_val = type { i64, %union.yyjson_val_uni, ptr }
%union.yyjson_val_uni = type { i64 }
%struct.yyjson_mut_doc = type { ptr, %struct.yyjson_alc, %struct.yyjson_str_pool, %struct.yyjson_val_pool }
%struct.yyjson_val = type { i64, %union.yyjson_val_uni }

; Function Attrs: alwaysinline nounwind uwtable
define internal ptr @unsafe_yyjson_mut_str_alc(ptr noundef %0, i64 noundef %1) #4 {
  %3 = alloca ptr, align 8
  %4 = alloca ptr, align 8
  %5 = alloca i64, align 8
  %6 = alloca ptr, align 8
  %7 = alloca ptr, align 8
  %8 = alloca ptr, align 8
  %9 = alloca i32, align 4
  store ptr %0, ptr %4, align 8, !tbaa !71
  store i64 %1, ptr %5, align 8, !tbaa !10
  call void @llvm.lifetime.start.p0(i64 8, ptr %6) #13
  call void @llvm.lifetime.start.p0(i64 8, ptr %7) #13
  %10 = load ptr, ptr %4, align 8, !tbaa !71
  %11 = getelementptr inbounds nuw %struct.yyjson_mut_doc, ptr %10, i32 0, i32 1
  store ptr %11, ptr %7, align 8, !tbaa !4
  call void @llvm.lifetime.start.p0(i64 8, ptr %8) #13
  %12 = load ptr, ptr %4, align 8, !tbaa !71
  %13 = getelementptr inbounds nuw %struct.yyjson_mut_doc, ptr %12, i32 0, i32 2
  store ptr %13, ptr %8, align 8, !tbaa !43
  %14 = load ptr, ptr %8, align 8, !tbaa !43
  %15 = getelementptr inbounds nuw %struct.yyjson_str_pool, ptr %14, i32 0, i32 1
  %16 = load ptr, ptr %15, align 8, !tbaa !55
  %17 = load ptr, ptr %8, align 8, !tbaa !43
  %18 = getelementptr inbounds nuw %struct.yyjson_str_pool, ptr %17, i32 0, i32 0
  %19 = load ptr, ptr %18, align 8, !tbaa !54
  %20 = ptrtoint ptr %16 to i64
  %21 = ptrtoint ptr %19 to i64
  %22 = sub i64 %20, %21
  %23 = load i64, ptr %5, align 8, !tbaa !10
  %24 = icmp ule i64 %22, %23
  %25 = xor i1 %24, true
  %26 = xor i1 %25, true
  %27 = zext i1 %26 to i32
  %28 = sext i32 %27 to i64
  %29 = call i64 @llvm.expect.i64(i64 %28, i64 0)
  %30 = icmp ne i64 %29, 0
  br i1 %30, label %31, label %46

31:                                               ; preds = %2
  %32 = load ptr, ptr %8, align 8, !tbaa !43
  %33 = load ptr, ptr %7, align 8, !tbaa !4
  %34 = load i64, ptr %5, align 8, !tbaa !10
  %35 = add i64 %34, 1
  %36 = call zeroext i1 @unsafe_yyjson_str_pool_grow(ptr noundef %32, ptr noundef %33, i64 noundef %35)
  %37 = xor i1 %36, true
  %38 = xor i1 %37, true
  %39 = xor i1 %38, true
  %40 = zext i1 %39 to i32
  %41 = sext i32 %40 to i64
  %42 = call i64 @llvm.expect.i64(i64 %41, i64 0)
  %43 = icmp ne i64 %42, 0
  br i1 %43, label %44, label %45

44:                                               ; preds = %31
  store ptr null, ptr %3, align 8
  store i32 1, ptr %9, align 4
  br label %57

45:                                               ; preds = %31
  br label %46

46:                                               ; preds = %45, %2
  %47 = load ptr, ptr %8, align 8, !tbaa !43
  %48 = getelementptr inbounds nuw %struct.yyjson_str_pool, ptr %47, i32 0, i32 0
  %49 = load ptr, ptr %48, align 8, !tbaa !54
  store ptr %49, ptr %6, align 8, !tbaa !92
  %50 = load ptr, ptr %6, align 8, !tbaa !92
  %51 = load i64, ptr %5, align 8, !tbaa !10
  %52 = getelementptr inbounds nuw i8, ptr %50, i64 %51
  %53 = getelementptr inbounds i8, ptr %52, i64 1
  %54 = load ptr, ptr %8, align 8, !tbaa !43
  %55 = getelementptr inbounds nuw %struct.yyjson_str_pool, ptr %54, i32 0, i32 0
  store ptr %53, ptr %55, align 8, !tbaa !54
  %56 = load ptr, ptr %6, align 8, !tbaa !92
  store ptr %56, ptr %3, align 8
  store i32 1, ptr %9, align 4
  br label %57

57:                                               ; preds = %46, %44
  call void @llvm.lifetime.end.p0(i64 8, ptr %8) #13
  call void @llvm.lifetime.end.p0(i64 8, ptr %7) #13
  call void @llvm.lifetime.end.p0(i64 8, ptr %6) #13
  %58 = load ptr, ptr %3, align 8
  ret ptr %58
}

; Function Attrs: alwaysinline nounwind uwtable
define internal ptr @unsafe_yyjson_mut_strncpy(ptr noundef %0, ptr noundef %1, i64 noundef %2) #4 {
  %4 = alloca ptr, align 8
  %5 = alloca ptr, align 8
  %6 = alloca ptr, align 8
  %7 = alloca i64, align 8
  %8 = alloca ptr, align 8
  %9 = alloca i32, align 4
  store ptr %0, ptr %5, align 8, !tbaa !71
  store ptr %1, ptr %6, align 8, !tbaa !92
  store i64 %2, ptr %7, align 8, !tbaa !10
  call void @llvm.lifetime.start.p0(i64 8, ptr %8) #13
  %10 = load ptr, ptr %5, align 8, !tbaa !71
  %11 = load i64, ptr %7, align 8, !tbaa !10
  %12 = call ptr @unsafe_yyjson_mut_str_alc(ptr noundef %10, i64 noundef %11)
  store ptr %12, ptr %8, align 8, !tbaa !92
  %13 = load ptr, ptr %8, align 8, !tbaa !92
  %14 = icmp ne ptr %13, null
  %15 = xor i1 %14, true
  %16 = xor i1 %15, true
  %17 = xor i1 %16, true
  %18 = zext i1 %17 to i32
  %19 = sext i32 %18 to i64
  %20 = call i64 @llvm.expect.i64(i64 %19, i64 0)
  %21 = icmp ne i64 %20, 0
  br i1 %21, label %22, label %23

22:                                               ; preds = %3
  store ptr null, ptr %4, align 8
  store i32 1, ptr %9, align 4
  br label %31

23:                                               ; preds = %3
  %24 = load ptr, ptr %8, align 8, !tbaa !92
  %25 = load ptr, ptr %6, align 8, !tbaa !92
  %26 = load i64, ptr %7, align 8, !tbaa !10
  call void @llvm.memcpy.p0.p0.i64(ptr align 1 %24, ptr align 1 %25, i64 %26, i1 false)
  %27 = load ptr, ptr %8, align 8, !tbaa !92
  %28 = load i64, ptr %7, align 8, !tbaa !10
  %29 = getelementptr inbounds nuw i8, ptr %27, i64 %28
  store i8 0, ptr %29, align 1, !tbaa !87
  %30 = load ptr, ptr %8, align 8, !tbaa !92
  store ptr %30, ptr %4, align 8
  store i32 1, ptr %9, align 4
  br label %31

31:                                               ; preds = %23, %22
  call void @llvm.lifetime.end.p0(i64 8, ptr %8) #13
  %32 = load ptr, ptr %4, align 8
  ret ptr %32
}

; Function Attrs: alwaysinline nounwind uwtable
define internal i64 @unsafe_yyjson_get_len(ptr noundef %0) #4 {
  %2 = alloca ptr, align 8
  store ptr %0, ptr %2, align 8, !tbaa !9
  %3 = load ptr, ptr %2, align 8, !tbaa !9
  %4 = getelementptr inbounds nuw %struct.yyjson_val, ptr %3, i32 0, i32 0
  %5 = load i64, ptr %4, align 8, !tbaa !88
  %6 = lshr i64 %5, 8
  ret i64 %6
}

; Function Attrs: alwaysinline nounwind uwtable
define internal zeroext i8 @unsafe_yyjson_get_type(ptr noundef %0) #4 {
  %2 = alloca ptr, align 8
  %3 = alloca i8, align 1
  store ptr %0, ptr %2, align 8, !tbaa !9
  call void @llvm.lifetime.start.p0(i64 1, ptr %3) #13
  %4 = load ptr, ptr %2, align 8, !tbaa !9
  %5 = getelementptr inbounds nuw %struct.yyjson_val, ptr %4, i32 0, i32 0
  %6 = load i64, ptr %5, align 8, !tbaa !88
  %7 = trunc i64 %6 to i8
  store i8 %7, ptr %3, align 1, !tbaa !87
  %8 = load i8, ptr %3, align 1, !tbaa !87
  %9 = zext i8 %8 to i32
  %10 = and i32 %9, 7
  %11 = trunc i32 %10 to i8
  call void @llvm.lifetime.end.p0(i64 1, ptr %3) #13
  ret i8 %11
}

; Function Attrs: alwaysinline nounwind uwtable
define internal ptr @unsafe_yyjson_mut_val(ptr noundef %0, i64 noundef %1) #4 {
  %3 = alloca ptr, align 8
  %4 = alloca ptr, align 8
  %5 = alloca i64, align 8
  %6 = alloca ptr, align 8
  %7 = alloca ptr, align 8
  %8 = alloca ptr, align 8
  %9 = alloca i32, align 4
  store ptr %0, ptr %4, align 8, !tbaa !71
  store i64 %1, ptr %5, align 8, !tbaa !10
  call void @llvm.lifetime.start.p0(i64 8, ptr %6) #13
  call void @llvm.lifetime.start.p0(i64 8, ptr %7) #13
  %10 = load ptr, ptr %4, align 8, !tbaa !71
  %11 = getelementptr inbounds nuw %struct.yyjson_mut_doc, ptr %10, i32 0, i32 1
  store ptr %11, ptr %7, align 8, !tbaa !4
  call void @llvm.lifetime.start.p0(i64 8, ptr %8) #13
  %12 = load ptr, ptr %4, align 8, !tbaa !71
  %13 = getelementptr inbounds nuw %struct.yyjson_mut_doc, ptr %12, i32 0, i32 3
  store ptr %13, ptr %8, align 8, !tbaa !57
  %14 = load ptr, ptr %8, align 8, !tbaa !57
  %15 = getelementptr inbounds nuw %struct.yyjson_val_pool, ptr %14, i32 0, i32 1
  %16 = load ptr, ptr %15, align 8, !tbaa !69
  %17 = load ptr, ptr %8, align 8, !tbaa !57
  %18 = getelementptr inbounds nuw %struct.yyjson_val_pool, ptr %17, i32 0, i32 0
  %19 = load ptr, ptr %18, align 8, !tbaa !68
  %20 = ptrtoint ptr %16 to i64
  %21 = ptrtoint ptr %19 to i64
  %22 = sub i64 %20, %21
  %23 = sdiv exact i64 %22, 24
  %24 = load i64, ptr %5, align 8, !tbaa !10
  %25 = icmp ult i64 %23, %24
  %26 = xor i1 %25, true
  %27 = xor i1 %26, true
  %28 = zext i1 %27 to i32
  %29 = sext i32 %28 to i64
  %30 = call i64 @llvm.expect.i64(i64 %29, i64 0)
  %31 = icmp ne i64 %30, 0
  br i1 %31, label %32, label %46

32:                                               ; preds = %2
  %33 = load ptr, ptr %8, align 8, !tbaa !57
  %34 = load ptr, ptr %7, align 8, !tbaa !4
  %35 = load i64, ptr %5, align 8, !tbaa !10
  %36 = call zeroext i1 @unsafe_yyjson_val_pool_grow(ptr noundef %33, ptr noundef %34, i64 noundef %35)
  %37 = xor i1 %36, true
  %38 = xor i1 %37, true
  %39 = xor i1 %38, true
  %40 = zext i1 %39 to i32
  %41 = sext i32 %40 to i64
  %42 = call i64 @llvm.expect.i64(i64 %41, i64 0)
  %43 = icmp ne i64 %42, 0
  br i1 %43, label %44, label %45

44:                                               ; preds = %32
  store ptr null, ptr %3, align 8
  store i32 1, ptr %9, align 4
  br label %56

45:                                               ; preds = %32
  br label %46

46:                                               ; preds = %45, %2
  %47 = load ptr, ptr %8, align 8, !tbaa !57
  %48 = getelementptr inbounds nuw %struct.yyjson_val_pool, ptr %47, i32 0, i32 0
  %49 = load ptr, ptr %48, align 8, !tbaa !68
  store ptr %49, ptr %6, align 8, !tbaa !85
  %50 = load i64, ptr %5, align 8, !tbaa !10
  %51 = load ptr, ptr %8, align 8, !tbaa !57
  %52 = getelementptr inbounds nuw %struct.yyjson_val_pool, ptr %51, i32 0, i32 0
  %53 = load ptr, ptr %52, align 8, !tbaa !68
  %54 = getelementptr inbounds nuw %struct.yyjson_mut_val, ptr %53, i64 %50
  store ptr %54, ptr %52, align 8, !tbaa !68
  %55 = load ptr, ptr %6, align 8, !tbaa !85
  store ptr %55, ptr %3, align 8
  store i32 1, ptr %9, align 4
  br label %56

56:                                               ; preds = %46, %44
  call void @llvm.lifetime.end.p0(i64 8, ptr %8) #13
  call void @llvm.lifetime.end.p0(i64 8, ptr %7) #13
  call void @llvm.lifetime.end.p0(i64 8, ptr %6) #13
  %57 = load ptr, ptr %3, align 8
  ret ptr %57
}

; Function Attrs: nounwind uwtable
define internal ptr @unsafe_yyjson_mut_val_mut_copy(ptr noundef %0, ptr noundef %1) #0 {
  %3 = alloca ptr, align 8
  %4 = alloca ptr, align 8
  %5 = alloca ptr, align 8
  %6 = alloca ptr, align 8
  %7 = alloca i32, align 4
  %8 = alloca ptr, align 8
  %9 = alloca ptr, align 8
  %10 = alloca ptr, align 8
  %11 = alloca ptr, align 8
  %12 = alloca i64, align 8
  store ptr %0, ptr %4, align 8, !tbaa !71
  store ptr %1, ptr %5, align 8, !tbaa !85
  call void @llvm.lifetime.start.p0(i64 8, ptr %6) #13
  %13 = load ptr, ptr %4, align 8, !tbaa !71
  %14 = call ptr @unsafe_yyjson_mut_val(ptr noundef %13, i64 noundef 1)
  store ptr %14, ptr %6, align 8, !tbaa !85
  %15 = load ptr, ptr %6, align 8, !tbaa !85
  %16 = icmp ne ptr %15, null
  %17 = xor i1 %16, true
  %18 = xor i1 %17, true
  %19 = xor i1 %18, true
  %20 = zext i1 %19 to i32
  %21 = sext i32 %20 to i64
  %22 = call i64 @llvm.expect.i64(i64 %21, i64 0)
  %23 = icmp ne i64 %22, 0
  br i1 %23, label %24, label %25

24:                                               ; preds = %2
  store ptr null, ptr %3, align 8
  store i32 1, ptr %7, align 4
  br label %114

25:                                               ; preds = %2
  %26 = load ptr, ptr %5, align 8, !tbaa !85
  %27 = getelementptr inbounds nuw %struct.yyjson_mut_val, ptr %26, i32 0, i32 0
  %28 = load i64, ptr %27, align 8, !tbaa !90
  %29 = load ptr, ptr %6, align 8, !tbaa !85
  %30 = getelementptr inbounds nuw %struct.yyjson_mut_val, ptr %29, i32 0, i32 0
  store i64 %28, ptr %30, align 8, !tbaa !90
  %31 = load ptr, ptr %5, align 8, !tbaa !85
  %32 = call zeroext i8 @unsafe_yyjson_get_type(ptr noundef %31)
  %33 = zext i8 %32 to i32
  switch i32 %33, label %107 [
    i32 7, label %34
    i32 6, label %34
    i32 1, label %87
    i32 5, label %87
  ]

34:                                               ; preds = %25, %25
  %35 = load ptr, ptr %5, align 8, !tbaa !85
  %36 = call i64 @unsafe_yyjson_get_len(ptr noundef %35)
  %37 = icmp ugt i64 %36, 0
  br i1 %37, label %38, label %86

38:                                               ; preds = %34
  call void @llvm.lifetime.start.p0(i64 8, ptr %8) #13
  %39 = load ptr, ptr %5, align 8, !tbaa !85
  %40 = getelementptr inbounds nuw %struct.yyjson_mut_val, ptr %39, i32 0, i32 1
  %41 = load ptr, ptr %40, align 8, !tbaa !87
  store ptr %41, ptr %8, align 8, !tbaa !85
  call void @llvm.lifetime.start.p0(i64 8, ptr %9) #13
  %42 = load ptr, ptr %8, align 8, !tbaa !85
  %43 = getelementptr inbounds nuw %struct.yyjson_mut_val, ptr %42, i32 0, i32 2
  %44 = load ptr, ptr %43, align 8, !tbaa !93
  store ptr %44, ptr %9, align 8, !tbaa !85
  call void @llvm.lifetime.start.p0(i64 8, ptr %10) #13
  %45 = load ptr, ptr %4, align 8, !tbaa !71
  %46 = load ptr, ptr %8, align 8, !tbaa !85
  %47 = call ptr @unsafe_yyjson_mut_val_mut_copy(ptr noundef %45, ptr noundef %46)
  store ptr %47, ptr %10, align 8, !tbaa !85
  %48 = load ptr, ptr %10, align 8, !tbaa !85
  %49 = icmp ne ptr %48, null
  br i1 %49, label %51, label %50

50:                                               ; preds = %38
  store ptr null, ptr %3, align 8
  store i32 1, ptr %7, align 4
  br label %83

51:                                               ; preds = %38
  %52 = load ptr, ptr %10, align 8, !tbaa !85
  %53 = load ptr, ptr %6, align 8, !tbaa !85
  %54 = getelementptr inbounds nuw %struct.yyjson_mut_val, ptr %53, i32 0, i32 1
  store ptr %52, ptr %54, align 8, !tbaa !87
  br label %55

55:                                               ; preds = %70, %51
  %56 = load ptr, ptr %9, align 8, !tbaa !85
  %57 = load ptr, ptr %8, align 8, !tbaa !85
  %58 = icmp ne ptr %56, %57
  br i1 %58, label %59, label %77

59:                                               ; preds = %55
  %60 = load ptr, ptr %4, align 8, !tbaa !71
  %61 = load ptr, ptr %9, align 8, !tbaa !85
  %62 = call ptr @unsafe_yyjson_mut_val_mut_copy(ptr noundef %60, ptr noundef %61)
  %63 = load ptr, ptr %10, align 8, !tbaa !85
  %64 = getelementptr inbounds nuw %struct.yyjson_mut_val, ptr %63, i32 0, i32 2
  store ptr %62, ptr %64, align 8, !tbaa !93
  %65 = load ptr, ptr %10, align 8, !tbaa !85
  %66 = getelementptr inbounds nuw %struct.yyjson_mut_val, ptr %65, i32 0, i32 2
  %67 = load ptr, ptr %66, align 8, !tbaa !93
  %68 = icmp ne ptr %67, null
  br i1 %68, label %70, label %69

69:                                               ; preds = %59
  store ptr null, ptr %3, align 8
  store i32 1, ptr %7, align 4
  br label %83

70:                                               ; preds = %59
  %71 = load ptr, ptr %10, align 8, !tbaa !85
  %72 = getelementptr inbounds nuw %struct.yyjson_mut_val, ptr %71, i32 0, i32 2
  %73 = load ptr, ptr %72, align 8, !tbaa !93
  store ptr %73, ptr %10, align 8, !tbaa !85
  %74 = load ptr, ptr %9, align 8, !tbaa !85
  %75 = getelementptr inbounds nuw %struct.yyjson_mut_val, ptr %74, i32 0, i32 2
  %76 = load ptr, ptr %75, align 8, !tbaa !93
  store ptr %76, ptr %9, align 8, !tbaa !85
  br label %55, !llvm.loop !102

77:                                               ; preds = %55
  %78 = load ptr, ptr %6, align 8, !tbaa !85
  %79 = getelementptr inbounds nuw %struct.yyjson_mut_val, ptr %78, i32 0, i32 1
  %80 = load ptr, ptr %79, align 8, !tbaa !87
  %81 = load ptr, ptr %10, align 8, !tbaa !85
  %82 = getelementptr inbounds nuw %struct.yyjson_mut_val, ptr %81, i32 0, i32 2
  store ptr %80, ptr %82, align 8, !tbaa !93
  store i32 0, ptr %7, align 4
  br label %83

83:                                               ; preds = %77, %69, %50
  call void @llvm.lifetime.end.p0(i64 8, ptr %10) #13
  call void @llvm.lifetime.end.p0(i64 8, ptr %9) #13
  call void @llvm.lifetime.end.p0(i64 8, ptr %8) #13
  %84 = load i32, ptr %7, align 4
  switch i32 %84, label %114 [
    i32 0, label %85
  ]

85:                                               ; preds = %83
  br label %86

86:                                               ; preds = %85, %34
  br label %112

87:                                               ; preds = %25, %25
  call void @llvm.lifetime.start.p0(i64 8, ptr %11) #13
  %88 = load ptr, ptr %5, align 8, !tbaa !85
  %89 = getelementptr inbounds nuw %struct.yyjson_mut_val, ptr %88, i32 0, i32 1
  %90 = load ptr, ptr %89, align 8, !tbaa !87
  store ptr %90, ptr %11, align 8, !tbaa !92
  call void @llvm.lifetime.start.p0(i64 8, ptr %12) #13
  %91 = load ptr, ptr %5, align 8, !tbaa !85
  %92 = call i64 @unsafe_yyjson_get_len(ptr noundef %91)
  store i64 %92, ptr %12, align 8, !tbaa !10
  %93 = load ptr, ptr %4, align 8, !tbaa !71
  %94 = load ptr, ptr %11, align 8, !tbaa !92
  %95 = load i64, ptr %12, align 8, !tbaa !10
  %96 = call ptr @unsafe_yyjson_mut_strncpy(ptr noundef %93, ptr noundef %94, i64 noundef %95)
  %97 = load ptr, ptr %6, align 8, !tbaa !85
  %98 = getelementptr inbounds nuw %struct.yyjson_mut_val, ptr %97, i32 0, i32 1
  store ptr %96, ptr %98, align 8, !tbaa !87
  %99 = load ptr, ptr %6, align 8, !tbaa !85
  %100 = getelementptr inbounds nuw %struct.yyjson_mut_val, ptr %99, i32 0, i32 1
  %101 = load ptr, ptr %100, align 8, !tbaa !87
  %102 = icmp ne ptr %101, null
  br i1 %102, label %104, label %103

103:                                              ; preds = %87
  store ptr null, ptr %3, align 8
  store i32 1, ptr %7, align 4
  br label %105

104:                                              ; preds = %87
  store i32 2, ptr %7, align 4
  br label %105

105:                                              ; preds = %104, %103
  call void @llvm.lifetime.end.p0(i64 8, ptr %12) #13
  call void @llvm.lifetime.end.p0(i64 8, ptr %11) #13
  %106 = load i32, ptr %7, align 4
  switch i32 %106, label %114 [
    i32 2, label %112
  ]

107:                                              ; preds = %25
  %108 = load ptr, ptr %6, align 8, !tbaa !85
  %109 = getelementptr inbounds nuw %struct.yyjson_mut_val, ptr %108, i32 0, i32 1
  %110 = load ptr, ptr %5, align 8, !tbaa !85
  %111 = getelementptr inbounds nuw %struct.yyjson_mut_val, ptr %110, i32 0, i32 1
  call void @llvm.memcpy.p0.p0.i64(ptr align 8 %109, ptr align 8 %111, i64 8, i1 false), !tbaa.struct !103
  br label %112

112:                                              ; preds = %107, %105, %86
  %113 = load ptr, ptr %6, align 8, !tbaa !85
  store ptr %113, ptr %3, align 8
  store i32 1, ptr %7, align 4
  br label %114

114:                                              ; preds = %112, %105, %83, %24
  call void @llvm.lifetime.end.p0(i64 8, ptr %6) #13
  %115 = load ptr, ptr %3, align 8
  ret ptr %115
}