; Function Attrs: nounwind uwtable
define internal fastcc ptr @unsafe_yyjson_mut_val_mut_copy(ptr noundef nonnull %0, ptr noundef readonly captures(none) %1) unnamed_addr #8 {
  %3 = getelementptr inbounds nuw i8, ptr %0, i64 80
  %4 = getelementptr inbounds nuw i8, ptr %0, i64 88
  %5 = load ptr, ptr %4, align 8, !tbaa !60
  %6 = load ptr, ptr %3, align 8, !tbaa !59
  %7 = icmp eq ptr %5, %6
  br i1 %7, label %8, label %unsafe_yyjson_mut_val.exit, !prof !4

8:                                                ; preds = %2
  %9 = getelementptr inbounds nuw i8, ptr %0, i64 8
  %10 = tail call zeroext i1 @unsafe_yyjson_val_pool_grow(ptr noundef nonnull %3, ptr noundef nonnull %9, i64 noundef 1)
  br i1 %10, label %.unsafe_yyjson_mut_val.exit_crit_edge, label %unsafe_yyjson_mut_val.exit.thread, !prof !23

.unsafe_yyjson_mut_val.exit_crit_edge:            ; preds = %8
  %.pre = load ptr, ptr %3, align 8, !tbaa !59
  br label %unsafe_yyjson_mut_val.exit

unsafe_yyjson_mut_val.exit:                       ; preds = %.unsafe_yyjson_mut_val.exit_crit_edge, %2
  %11 = phi ptr [ %.pre, %.unsafe_yyjson_mut_val.exit_crit_edge ], [ %6, %2 ]
  %12 = getelementptr inbounds nuw i8, ptr %11, i64 24
  store ptr %12, ptr %3, align 8, !tbaa !59
  %.not = icmp eq ptr %11, null
  br i1 %.not, label %unsafe_yyjson_mut_val.exit.thread, label %13, !prof !83

13:                                               ; preds = %unsafe_yyjson_mut_val.exit
  %14 = load i64, ptr %1, align 8, !tbaa !76
  store i64 %14, ptr %11, align 8, !tbaa !76
  %15 = trunc i64 %14 to i8
  %16 = and i8 %15, 7
  switch i8 %16, label %53 [
    i8 7, label %17
    i8 6, label %17
    i8 1, label %33
    i8 5, label %33
  ]

17:                                               ; preds = %13, %13
  %.not43 = icmp ult i64 %14, 256
  br i1 %.not43, label %unsafe_yyjson_mut_val.exit.thread, label %18

18:                                               ; preds = %17
  %19 = getelementptr inbounds nuw i8, ptr %1, i64 8
  %20 = load ptr, ptr %19, align 8, !tbaa !75
  %21 = getelementptr inbounds nuw i8, ptr %20, i64 16
  %22 = load ptr, ptr %21, align 8, !tbaa !79
  %23 = tail call fastcc ptr @unsafe_yyjson_mut_val_mut_copy(ptr noundef %0, ptr noundef %20)
  %.not44 = icmp eq ptr %23, null
  br i1 %.not44, label %unsafe_yyjson_mut_val.exit.thread, label %24

24:                                               ; preds = %18
  %25 = getelementptr inbounds nuw i8, ptr %11, i64 8
  store ptr %23, ptr %25, align 8, !tbaa !75
  %.not4557 = icmp eq ptr %22, %20
  br i1 %.not4557, label %.critedge, label %.lr.ph

.lr.ph:                                           ; preds = %24, %28
  %.03859 = phi ptr [ %26, %28 ], [ %23, %24 ]
  %.03958 = phi ptr [ %30, %28 ], [ %22, %24 ]
  %26 = tail call fastcc ptr @unsafe_yyjson_mut_val_mut_copy(ptr noundef %0, ptr noundef %.03958)
  %27 = getelementptr inbounds nuw i8, ptr %.03859, i64 16
  store ptr %26, ptr %27, align 8, !tbaa !79
  %.not46 = icmp eq ptr %26, null
  br i1 %.not46, label %unsafe_yyjson_mut_val.exit.thread, label %28

28:                                               ; preds = %.lr.ph
  %29 = getelementptr inbounds nuw i8, ptr %.03958, i64 16
  %30 = load ptr, ptr %29, align 8, !tbaa !79
  %.not45 = icmp eq ptr %30, %20
  br i1 %.not45, label %.critedge.loopexit, label %.lr.ph, !llvm.loop !84

.critedge.loopexit:                               ; preds = %28
  %.pre61 = load ptr, ptr %25, align 8, !tbaa !75
  br label %.critedge

.critedge:                                        ; preds = %.critedge.loopexit, %24
  %31 = phi ptr [ %23, %24 ], [ %.pre61, %.critedge.loopexit ]
  %.038.lcssa = phi ptr [ %23, %24 ], [ %26, %.critedge.loopexit ]
  %32 = getelementptr inbounds nuw i8, ptr %.038.lcssa, i64 16
  store ptr %31, ptr %32, align 8, !tbaa !79
  br label %unsafe_yyjson_mut_val.exit.thread

33:                                               ; preds = %13, %13
  %34 = getelementptr inbounds nuw i8, ptr %1, i64 8
  %35 = load ptr, ptr %34, align 8, !tbaa !75
  %36 = lshr i64 %14, 8
  %37 = getelementptr inbounds nuw i8, ptr %0, i64 40
  %38 = getelementptr inbounds nuw i8, ptr %0, i64 48
  %39 = load ptr, ptr %38, align 8, !tbaa !49
  %40 = load ptr, ptr %37, align 8, !tbaa !48
  %41 = ptrtoint ptr %39 to i64
  %42 = ptrtoint ptr %40 to i64
  %43 = sub i64 %41, %42
  %.not.i48 = icmp ugt i64 %43, %36
  br i1 %.not.i48, label %unsafe_yyjson_mut_str_alc.exit, label %44, !prof !23

44:                                               ; preds = %33
  %45 = getelementptr inbounds nuw i8, ptr %0, i64 8
  %46 = add nuw nsw i64 %36, 1
  %47 = tail call zeroext i1 @unsafe_yyjson_str_pool_grow(ptr noundef nonnull %37, ptr noundef nonnull %45, i64 noundef %46)
  br i1 %47, label %unsafe_yyjson_mut_str_alc.exitthread-pre-split, label %unsafe_yyjson_mut_strncpy.exit.thread, !prof !23

unsafe_yyjson_mut_str_alc.exitthread-pre-split:   ; preds = %44
  %.pr = load ptr, ptr %37, align 8, !tbaa !48
  br label %unsafe_yyjson_mut_str_alc.exit

unsafe_yyjson_mut_str_alc.exit:                   ; preds = %unsafe_yyjson_mut_str_alc.exitthread-pre-split, %33
  %48 = phi ptr [ %.pr, %unsafe_yyjson_mut_str_alc.exitthread-pre-split ], [ %40, %33 ]
  %49 = getelementptr inbounds nuw i8, ptr %48, i64 %36
  %50 = getelementptr inbounds nuw i8, ptr %49, i64 1
  store ptr %50, ptr %37, align 8, !tbaa !48
  %.not.i = icmp eq ptr %48, null
  br i1 %.not.i, label %unsafe_yyjson_mut_strncpy.exit.thread, label %unsafe_yyjson_mut_strncpy.exit, !prof !78

unsafe_yyjson_mut_strncpy.exit.thread:            ; preds = %unsafe_yyjson_mut_str_alc.exit, %44
  %51 = getelementptr inbounds nuw i8, ptr %11, i64 8
  store ptr null, ptr %51, align 8, !tbaa !75
  br label %unsafe_yyjson_mut_val.exit.thread

unsafe_yyjson_mut_strncpy.exit:                   ; preds = %unsafe_yyjson_mut_str_alc.exit
  tail call void @llvm.memcpy.p0.p0.i64(ptr nonnull align 1 %48, ptr align 1 %35, i64 %36, i1 false)
  store i8 0, ptr %49, align 1, !tbaa !75
  %52 = getelementptr inbounds nuw i8, ptr %11, i64 8
  store ptr %48, ptr %52, align 8, !tbaa !75
  br label %unsafe_yyjson_mut_val.exit.thread

53:                                               ; preds = %13
  %54 = getelementptr inbounds nuw i8, ptr %11, i64 8
  %55 = getelementptr inbounds nuw i8, ptr %1, i64 8
  %56 = load i64, ptr %55, align 8, !tbaa !75
  store i64 %56, ptr %54, align 8, !tbaa !75
  br label %unsafe_yyjson_mut_val.exit.thread

unsafe_yyjson_mut_val.exit.thread:                ; preds = %.lr.ph, %8, %53, %17, %.critedge, %unsafe_yyjson_mut_strncpy.exit, %unsafe_yyjson_mut_strncpy.exit.thread, %18, %unsafe_yyjson_mut_val.exit
  %.0 = phi ptr [ null, %unsafe_yyjson_mut_val.exit ], [ null, %18 ], [ null, %unsafe_yyjson_mut_strncpy.exit.thread ], [ %11, %unsafe_yyjson_mut_strncpy.exit ], [ %11, %.critedge ], [ %11, %17 ], [ %11, %53 ], [ null, %8 ], [ null, %.lr.ph ]
  ret ptr %.0
}